; Function Attrs: nounwind uwtable
define float @b2Chain_GetRestitution(i64 %0) local_unnamed_addr #0 {
  %.sroa.2.0.extract.shift = lshr i64 %0, 32
  %2 = trunc nuw i64 %.sroa.2.0.extract.shift to i32
  %3 = and i32 %2, 65535
  %4 = tail call ptr @b2GetWorld(i32 noundef %3) #10
  %5 = getelementptr i8, ptr %4, i64 1272
  %.val = load ptr, ptr %5, align 8, !tbaa !10
  %6 = shl i64 %0, 32
  %sext.i = add i64 %6, -4294967296
  %7 = ashr exact i64 %sext.i, 32
  %8 = getelementptr inbounds %struct.b2ChainShape, ptr %.val, i64 %7, i32 6
  %9 = load ptr, ptr %8, align 8, !tbaa !130
  %10 = getelementptr inbounds nuw i8, ptr %9, i64 4
  %11 = load float, ptr %10, align 4, !tbaa !151
  ret float %11
}